; Function Attrs: mustprogress uwtable
define hidden noundef zeroext i1 @_ZN5zxing6qrcode19FinderPatternFinder24IsPossibleFindPatterInfoENS_3RefINS0_13FinderPatternEEES4_S4_(ptr nocapture noundef nonnull readnone align 8 dereferenceable(88) %0, ptr nocapture noundef readonly %1, ptr nocapture noundef readonly %2, ptr nocapture noundef readonly %3) local_unnamed_addr #0 align 2 personality ptr @__gxx_personality_v0 {
  %5 = alloca float, align 4
  %6 = alloca %"class.zxing::Ref.21", align 8
  %7 = alloca %"class.zxing::Ref.21", align 8
  %8 = alloca %"class.zxing::Ref.21", align 8
  %9 = load ptr, ptr %1, align 8
  %10 = tail call noundef float @_ZNK5zxing6qrcode13FinderPattern22getEstimatedModuleSizeEv(ptr noundef nonnull align 8 dereferenceable(40) %9)
  %11 = load ptr, ptr %2, align 8
  %12 = tail call noundef float @_ZNK5zxing6qrcode13FinderPattern22getEstimatedModuleSizeEv(ptr noundef nonnull align 8 dereferenceable(40) %11)
  %13 = load ptr, ptr %3, align 8
  %14 = tail call noundef float @_ZNK5zxing6qrcode13FinderPattern22getEstimatedModuleSizeEv(ptr noundef nonnull align 8 dereferenceable(40) %13)
  %15 = fadd float %10, %12
  %16 = fadd float %15, %14
  %17 = fdiv float %16, 3.000000e+00
  %18 = fsub float %10, %17
  %19 = fsub float %12, %17
  %20 = fmul float %19, %19
  %21 = tail call float @llvm.fmuladd.f32(float %18, float %18, float %20)
  %22 = fsub float %14, %17
  %23 = tail call float @llvm.fmuladd.f32(float %22, float %22, float %21)
  %sqrt = tail call float @llvm.sqrt.f32(float %23)
  %24 = load float, ptr @_ZN5zxing6qrcode19FinderPatternFinder10FPS_MS_VALE, align 4
  %25 = fcmp ult float %sqrt, %24
  br i1 %25, label %26, label %_ZN5zxing3RefINS_6qrcode13FinderPatternEED2Ev.exit35

26:                                               ; preds = %4
  store float 0.000000e+00, ptr %5, align 4
  %27 = load ptr, ptr %1, align 8
  %.not.i.i = icmp eq ptr %27, null
  br i1 %.not.i.i, label %_ZN5zxing3RefINS_6qrcode13FinderPatternEEC2ERKS3_.exit, label %28

28:                                               ; preds = %26
  %29 = getelementptr inbounds i8, ptr %27, i64 8
  %30 = load i32, ptr %29, align 8
  %31 = add i32 %30, 1
  store i32 %31, ptr %29, align 8
  br label %_ZN5zxing3RefINS_6qrcode13FinderPatternEEC2ERKS3_.exit

_ZN5zxing3RefINS_6qrcode13FinderPatternEEC2ERKS3_.exit: ; preds = %28, %26
  store ptr %27, ptr %6, align 8
  %32 = load ptr, ptr %2, align 8
  %.not.i.i24 = icmp eq ptr %32, null
  br i1 %.not.i.i24, label %37, label %33

33:                                               ; preds = %_ZN5zxing3RefINS_6qrcode13FinderPatternEEC2ERKS3_.exit
  %34 = getelementptr inbounds i8, ptr %32, i64 8
  %35 = load i32, ptr %34, align 8
  %36 = add i32 %35, 1
  store i32 %36, ptr %34, align 8
  br label %37

37:                                               ; preds = %_ZN5zxing3RefINS_6qrcode13FinderPatternEEC2ERKS3_.exit, %33
  store ptr %32, ptr %7, align 8
  %38 = load ptr, ptr %3, align 8
  %.not.i.i28 = icmp eq ptr %38, null
  br i1 %.not.i.i28, label %43, label %39

39:                                               ; preds = %37
  %40 = getelementptr inbounds i8, ptr %38, i64 8
  %41 = load i32, ptr %40, align 8
  %42 = add i32 %41, 1
  store i32 %42, ptr %40, align 8
  br label %43

43:                                               ; preds = %37, %39
  store ptr %38, ptr %8, align 8
  %44 = invoke noundef zeroext i1 @_ZN5zxing6qrcode19FinderPatternFinder27checkIsoscelesRightTriangleENS_3RefINS0_13FinderPatternEEES4_S4_Rf(ptr nonnull align 8 poison, ptr noundef nonnull %6, ptr noundef nonnull %7, ptr noundef nonnull %8, ptr noundef nonnull align 4 dereferenceable(4) %5)
          to label %45 unwind label %73

45:                                               ; preds = %43
  br i1 %.not.i.i28, label %_ZN5zxing3RefINS_6qrcode13FinderPatternEED2Ev.exit, label %46

46:                                               ; preds = %45
  %47 = getelementptr inbounds i8, ptr %38, i64 8
  %48 = load i32, ptr %47, align 8
  %49 = add i32 %48, -1
  store i32 %49, ptr %47, align 8
  %50 = icmp eq i32 %49, 0
  br i1 %50, label %51, label %_ZN5zxing3RefINS_6qrcode13FinderPatternEED2Ev.exit

51:                                               ; preds = %46
  store i32 -559026175, ptr %47, align 8
  %52 = load ptr, ptr %38, align 8
  %53 = getelementptr inbounds i8, ptr %52, i64 8
  %54 = load ptr, ptr %53, align 8
  call void %54(ptr noundef nonnull align 8 dereferenceable(12) %38) #22
  br label %_ZN5zxing3RefINS_6qrcode13FinderPatternEED2Ev.exit

_ZN5zxing3RefINS_6qrcode13FinderPatternEED2Ev.exit: ; preds = %45, %46, %51
  br i1 %.not.i.i24, label %_ZN5zxing3RefINS_6qrcode13FinderPatternEED2Ev.exit33, label %55

55:                                               ; preds = %_ZN5zxing3RefINS_6qrcode13FinderPatternEED2Ev.exit
  %56 = getelementptr inbounds i8, ptr %32, i64 8
  %57 = load i32, ptr %56, align 8
  %58 = add i32 %57, -1
  store i32 %58, ptr %56, align 8
  %59 = icmp eq i32 %58, 0
  br i1 %59, label %60, label %_ZN5zxing3RefINS_6qrcode13FinderPatternEED2Ev.exit33

60:                                               ; preds = %55
  store i32 -559026175, ptr %56, align 8
  %61 = load ptr, ptr %32, align 8
  %62 = getelementptr inbounds i8, ptr %61, i64 8
  %63 = load ptr, ptr %62, align 8
  call void %63(ptr noundef nonnull align 8 dereferenceable(12) %32) #22
  br label %_ZN5zxing3RefINS_6qrcode13FinderPatternEED2Ev.exit33

_ZN5zxing3RefINS_6qrcode13FinderPatternEED2Ev.exit33: ; preds = %_ZN5zxing3RefINS_6qrcode13FinderPatternEED2Ev.exit, %55, %60
  br i1 %.not.i.i, label %_ZN5zxing3RefINS_6qrcode13FinderPatternEED2Ev.exit35, label %64

64:                                               ; preds = %_ZN5zxing3RefINS_6qrcode13FinderPatternEED2Ev.exit33
  %65 = getelementptr inbounds i8, ptr %27, i64 8
  %66 = load i32, ptr %65, align 8
  %67 = add i32 %66, -1
  store i32 %67, ptr %65, align 8
  %68 = icmp eq i32 %67, 0
  br i1 %68, label %69, label %_ZN5zxing3RefINS_6qrcode13FinderPatternEED2Ev.exit35

69:                                               ; preds = %64
  store i32 -559026175, ptr %65, align 8
  %70 = load ptr, ptr %27, align 8
  %71 = getelementptr inbounds i8, ptr %70, i64 8
  %72 = load ptr, ptr %71, align 8
  call void %72(ptr noundef nonnull align 8 dereferenceable(12) %27) #22
  br label %_ZN5zxing3RefINS_6qrcode13FinderPatternEED2Ev.exit35

73:                                               ; preds = %43
  %74 = landingpad { ptr, i32 }
          cleanup
  br i1 %.not.i.i28, label %_ZN5zxing3RefINS_6qrcode13FinderPatternEED2Ev.exit37, label %75

75:                                               ; preds = %73
  %76 = getelementptr inbounds i8, ptr %38, i64 8
  %77 = load i32, ptr %76, align 8
  %78 = add i32 %77, -1
  store i32 %78, ptr %76, align 8
  %79 = icmp eq i32 %78, 0
  br i1 %79, label %80, label %_ZN5zxing3RefINS_6qrcode13FinderPatternEED2Ev.exit37

80:                                               ; preds = %75
  store i32 -559026175, ptr %76, align 8
  %81 = load ptr, ptr %38, align 8
  %82 = getelementptr inbounds i8, ptr %81, i64 8
  %83 = load ptr, ptr %82, align 8
  call void %83(ptr noundef nonnull align 8 dereferenceable(12) %38) #22
  br label %_ZN5zxing3RefINS_6qrcode13FinderPatternEED2Ev.exit37

_ZN5zxing3RefINS_6qrcode13FinderPatternEED2Ev.exit37: ; preds = %80, %75, %73
  br i1 %.not.i.i24, label %_ZN5zxing3RefINS_6qrcode13FinderPatternEED2Ev.exit39, label %84

84:                                               ; preds = %_ZN5zxing3RefINS_6qrcode13FinderPatternEED2Ev.exit37
  %85 = getelementptr inbounds i8, ptr %32, i64 8
  %86 = load i32, ptr %85, align 8
  %87 = add i32 %86, -1
  store i32 %87, ptr %85, align 8
  %88 = icmp eq i32 %87, 0
  br i1 %88, label %89, label %_ZN5zxing3RefINS_6qrcode13FinderPatternEED2Ev.exit39

89:                                               ; preds = %84
  store i32 -559026175, ptr %85, align 8
  %90 = load ptr, ptr %32, align 8
  %91 = getelementptr inbounds i8, ptr %90, i64 8
  %92 = load ptr, ptr %91, align 8
  call void %92(ptr noundef nonnull align 8 dereferenceable(12) %32) #22
  br label %_ZN5zxing3RefINS_6qrcode13FinderPatternEED2Ev.exit39

_ZN5zxing3RefINS_6qrcode13FinderPatternEED2Ev.exit39: ; preds = %89, %84, %_ZN5zxing3RefINS_6qrcode13FinderPatternEED2Ev.exit37
  br i1 %.not.i.i, label %_ZN5zxing3RefINS_6qrcode13FinderPatternEED2Ev.exit41, label %93

93:                                               ; preds = %_ZN5zxing3RefINS_6qrcode13FinderPatternEED2Ev.exit39
  %94 = getelementptr inbounds i8, ptr %27, i64 8
  %95 = load i32, ptr %94, align 8
  %96 = add i32 %95, -1
  store i32 %96, ptr %94, align 8
  %97 = icmp eq i32 %96, 0
  br i1 %97, label %98, label %_ZN5zxing3RefINS_6qrcode13FinderPatternEED2Ev.exit41

98:                                               ; preds = %93
  store i32 -559026175, ptr %94, align 8
  %99 = load ptr, ptr %27, align 8
  %100 = getelementptr inbounds i8, ptr %99, i64 8
  %101 = load ptr, ptr %100, align 8
  call void %101(ptr noundef nonnull align 8 dereferenceable(12) %27) #22
  br label %_ZN5zxing3RefINS_6qrcode13FinderPatternEED2Ev.exit41

_ZN5zxing3RefINS_6qrcode13FinderPatternEED2Ev.exit41: ; preds = %_ZN5zxing3RefINS_6qrcode13FinderPatternEED2Ev.exit39, %93, %98
  resume { ptr, i32 } %74

_ZN5zxing3RefINS_6qrcode13FinderPatternEED2Ev.exit35: ; preds = %69, %64, %_ZN5zxing3RefINS_6qrcode13FinderPatternEED2Ev.exit33, %4
  %.021 = phi i1 [ false, %4 ], [ %44, %_ZN5zxing3RefINS_6qrcode13FinderPatternEED2Ev.exit33 ], [ %44, %64 ], [ %44, %69 ]
  ret i1 %.021
}